; Function Attrs: mustprogress uwtable
define internal noundef zeroext i1 @"_ZNSt17_Function_handlerIFbRKNSt7__cxx1112basic_stringIcSt11char_traitsIcESaIcEEEP5cmakeEZNS8_7SetArgsERKSt6vectorIS5_SaIS5_EEE4$_19E9_M_invokeERKSt9_Any_dataS7_OS9_"(ptr nocapture nonnull readnone align 8 %0, ptr nocapture nonnull readnone align 8 %1, ptr nocapture noundef nonnull readonly align 8 dereferenceable(8) %2) #3 align 2 {
  %.val = load ptr, ptr %2, align 8
  %4 = tail call noundef nonnull align 8 dereferenceable(8) ptr @_ZStlsISt11char_traitsIcEERSt13basic_ostreamIcT_ES5_PKc(ptr noundef nonnull align 8 dereferenceable(8) @_ZSt4cout, ptr noundef nonnull @.str.462)
  %5 = getelementptr inbounds i8, ptr %.val, i64 270
  store i8 1, ptr %5, align 2
  %6 = getelementptr inbounds i8, ptr %.val, i64 271
  store i8 0, ptr %6, align 1
  ret i1 true
}